target datalayout = "e-m:e-p270:32:32-p271:32:32-p272:64:64-i64:64-i128:128-f80:128-n8:16:32:64-S128"
target triple = "x86_64-pc-linux-gnu"

; Function Attrs: mustprogress uwtable
define internal noundef i32 @_ZL14lua_vector_dotP9lua_State(ptr noundef %0) #4 {
  %2 = alloca ptr, align 8
  %3 = alloca ptr, align 8
  %4 = alloca ptr, align 8
  store ptr %0, ptr %2, align 8
  %5 = load ptr, ptr %2, align 8
  %6 = call noundef ptr @_Z16luaL_checkvectorP9lua_Statei(ptr noundef %5, i32 noundef 1)
  store ptr %6, ptr %3, align 8
  %7 = load ptr, ptr %2, align 8
  %8 = call noundef ptr @_Z16luaL_checkvectorP9lua_Statei(ptr noundef %7, i32 noundef 2)
  store ptr %8, ptr %4, align 8
  %9 = load ptr, ptr %2, align 8
  %10 = load ptr, ptr %3, align 8
  %11 = getelementptr inbounds float, ptr %10, i64 0
  %12 = load float, ptr %11, align 4
  %13 = load ptr, ptr %4, align 8
  %14 = getelementptr inbounds float, ptr %13, i64 0
  %15 = load float, ptr %14, align 4
  %16 = load ptr, ptr %3, align 8
  %17 = getelementptr inbounds float, ptr %16, i64 1
  %18 = load float, ptr %17, align 4
  %19 = load ptr, ptr %4, align 8
  %20 = getelementptr inbounds float, ptr %19, i64 1
  %21 = load float, ptr %20, align 4
  %22 = fmul float %18, %21
  %23 = call float @llvm.fmuladd.f32(float %12, float %15, float %22)
  %24 = load ptr, ptr %3, align 8
  %25 = getelementptr inbounds float, ptr %24, i64 2
  %26 = load float, ptr %25, align 4
  %27 = load ptr, ptr %4, align 8
  %28 = getelementptr inbounds float, ptr %27, i64 2
  %29 = load float, ptr %28, align 4
  %30 = call float @llvm.fmuladd.f32(float %26, float %29, float %23)
  %31 = fpext float %30 to double
  call void @_Z14lua_pushnumberP9lua_Stated(ptr noundef %9, double noundef %31)
  ret i32 1
}