; Function Attrs: mustprogress uwtable
define internal noundef i32 @_ZL14lua_vector_dotP9lua_State(ptr noundef %0) #4 {
  %2 = tail call noundef ptr @_Z16luaL_checkvectorP9lua_Statei(ptr noundef %0, i32 noundef 1)
  %3 = tail call noundef ptr @_Z16luaL_checkvectorP9lua_Statei(ptr noundef %0, i32 noundef 2)
  %4 = load float, ptr %2, align 4
  %5 = load float, ptr %3, align 4
  %6 = getelementptr inbounds i8, ptr %2, i64 4
  %7 = load float, ptr %6, align 4
  %8 = getelementptr inbounds i8, ptr %3, i64 4
  %9 = load float, ptr %8, align 4
  %10 = fmul float %7, %9
  %11 = tail call float @llvm.fmuladd.f32(float %4, float %5, float %10)
  %12 = getelementptr inbounds i8, ptr %2, i64 8
  %13 = load float, ptr %12, align 4
  %14 = getelementptr inbounds i8, ptr %3, i64 8
  %15 = load float, ptr %14, align 4
  %16 = tail call float @llvm.fmuladd.f32(float %13, float %15, float %11)
  %17 = fpext float %16 to double
  tail call void @_Z14lua_pushnumberP9lua_Stated(ptr noundef %0, double noundef %17)
  ret i32 1
}